; Function Attrs: nounwind uwtable
define internal i32 @gdsdb_execute(ptr noundef %0, ptr readnone captures(none) %1, ptr noundef %2, i32 noundef %3) #0 {
  %5 = tail call i32 @tvb_reported_length_remaining(ptr noundef %0, i32 noundef %3) #3
  %6 = icmp slt i32 %5, 16
  br i1 %6, label %20, label %7

7:                                                ; preds = %4
  %8 = load i32, ptr @hf_gdsdb_execute_statement, align 4
  %9 = tail call ptr @proto_tree_add_item(ptr noundef %2, i32 noundef %8, ptr noundef %0, i32 noundef %3, i32 noundef 4, i32 noundef 0) #3
  %10 = add i32 %3, 4
  %11 = load i32, ptr @hf_gdsdb_execute_transaction, align 4
  %12 = tail call ptr @proto_tree_add_item(ptr noundef %2, i32 noundef %11, ptr noundef %0, i32 noundef %10, i32 noundef 4, i32 noundef 0) #3
  %13 = add i32 %3, 8
  %14 = load i32, ptr @hf_gdsdb_execute_message_number, align 4
  %15 = tail call ptr @proto_tree_add_item(ptr noundef %2, i32 noundef %14, ptr noundef %0, i32 noundef %13, i32 noundef 4, i32 noundef 0) #3
  %16 = add i32 %3, 12
  %17 = load i32, ptr @hf_gdsdb_execute_messages, align 4
  %18 = tail call ptr @proto_tree_add_item(ptr noundef %2, i32 noundef %17, ptr noundef %0, i32 noundef %16, i32 noundef 4, i32 noundef 0) #3
  %19 = tail call i32 @tvb_reported_length(ptr noundef %0) #3
  br label %20

20:                                               ; preds = %4, %7
  %.0 = phi i32 [ %19, %7 ], [ -1, %4 ]
  ret i32 %.0
}